target datalayout = "e-m:e-p270:32:32-p271:32:32-p272:64:64-i64:64-i128:128-f80:128-n8:16:32:64-S128"
target triple = "x86_64-unknown-linux-gnu"

%"class.zmq::ws_encoder_t" = type <{ %"class.zmq::encoder_base_t", [16 x i8], i8, [4 x i8], [3 x i8], %"class.zmq::msg_t", i8, [7 x i8] }>
%"class.zmq::encoder_base_t" = type { %"struct.zmq::i_encoder", ptr, i64, { i64, i64 }, i8, i64, ptr, ptr }
%"struct.zmq::i_encoder" = type { ptr }
%"class.zmq::msg_t" = type { %union.anon }
%union.anon = type { %struct.anon }
%struct.anon = type { ptr, [34 x i8], i8, i8, i32, %"union.zmq::msg_t::group_t" }
%"union.zmq::msg_t::group_t" = type { %struct.anon.1 }
%struct.anon.1 = type { i8, ptr }

; Function Attrs: mustprogress nounwind uwtable
define linkonce_odr void @_ZN3zmq14encoder_base_tINS_12ws_encoder_tEE9next_stepEPvmMS1_FvvEb(ptr noundef nonnull align 8 dereferenceable(72) %this, ptr noundef %write_pos_, i64 noundef %to_write_, i64 %next_.coerce0, i64 %next_.coerce1, i1 noundef zeroext %new_msg_flag_) #1 comdat align 2 {
entry:
  %next_ = alloca { i64, i64 }, align 8
  %this.addr = alloca ptr, align 8
  %write_pos_.addr = alloca ptr, align 8
  %to_write_.addr = alloca i64, align 8
  %next_.addr = alloca { i64, i64 }, align 8
  %new_msg_flag_.addr = alloca i8, align 1
  %0 = getelementptr inbounds { i64, i64 }, ptr %next_, i32 0, i32 0
  store i64 %next_.coerce0, ptr %0, align 8
  %1 = getelementptr inbounds { i64, i64 }, ptr %next_, i32 0, i32 1
  store i64 %next_.coerce1, ptr %1, align 8
  %next_1 = load { i64, i64 }, ptr %next_, align 8
  store ptr %this, ptr %this.addr, align 8
  store ptr %write_pos_, ptr %write_pos_.addr, align 8
  store i64 %to_write_, ptr %to_write_.addr, align 8
  store { i64, i64 } %next_1, ptr %next_.addr, align 8
  %frombool = zext i1 %new_msg_flag_ to i8
  store i8 %frombool, ptr %new_msg_flag_.addr, align 1
  %this2 = load ptr, ptr %this.addr, align 8
  %2 = load ptr, ptr %write_pos_.addr, align 8
  %_write_pos = getelementptr inbounds %"class.zmq::encoder_base_t", ptr %this2, i32 0, i32 1
  store ptr %2, ptr %_write_pos, align 8
  %3 = load i64, ptr %to_write_.addr, align 8
  %_to_write = getelementptr inbounds %"class.zmq::encoder_base_t", ptr %this2, i32 0, i32 2
  store i64 %3, ptr %_to_write, align 8
  %4 = load { i64, i64 }, ptr %next_.addr, align 8
  %_next = getelementptr inbounds %"class.zmq::encoder_base_t", ptr %this2, i32 0, i32 3
  store { i64, i64 } %4, ptr %_next, align 8
  %5 = load i8, ptr %new_msg_flag_.addr, align 1
  %tobool = trunc i8 %5 to i1
  %_new_msg_flag = getelementptr inbounds %"class.zmq::encoder_base_t", ptr %this2, i32 0, i32 4
  %frombool3 = zext i1 %tobool to i8
  store i8 %frombool3, ptr %_new_msg_flag, align 8
  ret void
}

; Function Attrs: mustprogress nounwind uwtable
define linkonce_odr noundef zeroext i1 @_ZNK3zmq5msg_t9is_cancelEv(ptr noundef nonnull align 8 dereferenceable(64) %this) #1 comdat align 2 {
entry:
  %this.addr = alloca ptr, align 8
  store ptr %this, ptr %this.addr, align 8
  %this1 = load ptr, ptr %this.addr, align 8
  %_u = getelementptr inbounds %"class.zmq::msg_t", ptr %this1, i32 0, i32 0
  %flags = getelementptr inbounds %struct.anon, ptr %_u, i32 0, i32 3
  %0 = load i8, ptr %flags, align 1
  %conv = zext i8 %0 to i32
  %and = and i32 %conv, 28
  %cmp = icmp eq i32 %and, 16
  ret i1 %cmp
}

; Function Attrs: mustprogress nounwind uwtable
define linkonce_odr noundef zeroext i1 @_ZNK3zmq5msg_t12is_subscribeEv(ptr noundef nonnull align 8 dereferenceable(64) %this) #1 comdat align 2 {
entry:
  %this.addr = alloca ptr, align 8
  store ptr %this, ptr %this.addr, align 8
  %this1 = load ptr, ptr %this.addr, align 8
  %_u = getelementptr inbounds %"class.zmq::msg_t", ptr %this1, i32 0, i32 0
  %flags = getelementptr inbounds %struct.anon, ptr %_u, i32 0, i32 3
  %0 = load i8, ptr %flags, align 1
  %conv = zext i8 %0 to i32
  %and = and i32 %conv, 28
  %cmp = icmp eq i32 %and, 12
  ret i1 %cmp
}

; Function Attrs: mustprogress nounwind uwtable
define linkonce_odr noundef ptr @_ZN3zmq14encoder_base_tINS_12ws_encoder_tEE11in_progressEv(ptr noundef nonnull align 8 dereferenceable(72) %this) #1 comdat align 2 {
entry:
  %this.addr = alloca ptr, align 8
  store ptr %this, ptr %this.addr, align 8
  %this1 = load ptr, ptr %this.addr, align 8
  %_in_progress = getelementptr inbounds %"class.zmq::encoder_base_t", ptr %this1, i32 0, i32 7
  %0 = load ptr, ptr %_in_progress, align 8
  ret ptr %0
}

; Function Attrs: mustprogress uwtable
define void @_ZN3zmq12ws_encoder_t10size_readyEv(ptr noundef nonnull align 8 dereferenceable(168) %this) #0 align 2 {
entry:
  %this.addr = alloca ptr, align 8
  %size = alloca i64, align 8
  %src = alloca ptr, align 8
  %dest = alloca ptr, align 8
  %mask_index = alloca i32, align 4
  %i = alloca i64, align 8
  %coerce = alloca { i64, i64 }, align 8
  %coerce38 = alloca { i64, i64 }, align 8
  store ptr %this, ptr %this.addr, align 8
  %this1 = load ptr, ptr %this.addr, align 8
  %_must_mask = getelementptr inbounds %"class.zmq::ws_encoder_t", ptr %this1, i32 0, i32 2
  %0 = load i8, ptr %_must_mask, align 8
  %tobool = trunc i8 %0 to i1
  br i1 %tobool, label %if.then, label %if.else

if.then:                                          ; preds = %entry
  %call = call noundef ptr @_ZN3zmq14encoder_base_tINS_12ws_encoder_tEE11in_progressEv(ptr noundef nonnull align 8 dereferenceable(72) %this1)
  %call2 = call noundef i64 @_ZNK3zmq5msg_t4sizeEv(ptr noundef nonnull align 8 dereferenceable(64) %call)
  store i64 %call2, ptr %size, align 8
  %call3 = call noundef ptr @_ZN3zmq14encoder_base_tINS_12ws_encoder_tEE11in_progressEv(ptr noundef nonnull align 8 dereferenceable(72) %this1)
  %call4 = call noundef ptr @_ZN3zmq5msg_t4dataEv(ptr noundef nonnull align 8 dereferenceable(64) %call3)
  store ptr %call4, ptr %src, align 8
  %1 = load ptr, ptr %src, align 8
  store ptr %1, ptr %dest, align 8
  %call5 = call noundef ptr @_ZN3zmq14encoder_base_tINS_12ws_encoder_tEE11in_progressEv(ptr noundef nonnull align 8 dereferenceable(72) %this1)
  %call6 = call noundef zeroext i8 @_ZNK3zmq5msg_t5flagsEv(ptr noundef nonnull align 8 dereferenceable(64) %call5)
  %conv = zext i8 %call6 to i32
  %and = and i32 %conv, 128
  %tobool7 = icmp ne i32 %and, 0
  br i1 %tobool7, label %if.then10, label %lor.lhs.false

lor.lhs.false:                                    ; preds = %if.then
  %call8 = call noundef ptr @_ZN3zmq14encoder_base_tINS_12ws_encoder_tEE11in_progressEv(ptr noundef nonnull align 8 dereferenceable(72) %this1)
  %call9 = call noundef zeroext i1 @_ZNK3zmq5msg_t7is_cmsgEv(ptr noundef nonnull align 8 dereferenceable(64) %call8)
  br i1 %call9, label %if.then10, label %if.end

if.then10:                                        ; preds = %lor.lhs.false, %if.then
  %_masked_msg = getelementptr inbounds %"class.zmq::ws_encoder_t", ptr %this1, i32 0, i32 5
  %call11 = call noundef i32 @_ZN3zmq5msg_t5closeEv(ptr noundef nonnull align 8 dereferenceable(64) %_masked_msg)
  %_masked_msg12 = getelementptr inbounds %"class.zmq::ws_encoder_t", ptr %this1, i32 0, i32 5
  %2 = load i64, ptr %size, align 8
  %call13 = call noundef i32 @_ZN3zmq5msg_t9init_sizeEm(ptr noundef nonnull align 8 dereferenceable(64) %_masked_msg12, i64 noundef %2)
  %_masked_msg14 = getelementptr inbounds %"class.zmq::ws_encoder_t", ptr %this1, i32 0, i32 5
  %call15 = call noundef ptr @_ZN3zmq5msg_t4dataEv(ptr noundef nonnull align 8 dereferenceable(64) %_masked_msg14)
  store ptr %call15, ptr %dest, align 8
  br label %if.end

if.end:                                           ; preds = %if.then10, %lor.lhs.false
  store i32 0, ptr %mask_index, align 4
  %_is_binary = getelementptr inbounds %"class.zmq::ws_encoder_t", ptr %this1, i32 0, i32 6
  %3 = load i8, ptr %_is_binary, align 8
  %tobool16 = trunc i8 %3 to i1
  br i1 %tobool16, label %if.then17, label %if.end18

if.then17:                                        ; preds = %if.end
  %4 = load i32, ptr %mask_index, align 4
  %inc = add nsw i32 %4, 1
  store i32 %inc, ptr %mask_index, align 4
  br label %if.end18

if.end18:                                         ; preds = %if.then17, %if.end
  %call19 = call noundef ptr @_ZN3zmq14encoder_base_tINS_12ws_encoder_tEE11in_progressEv(ptr noundef nonnull align 8 dereferenceable(72) %this1)
  %call20 = call noundef zeroext i1 @_ZNK3zmq5msg_t12is_subscribeEv(ptr noundef nonnull align 8 dereferenceable(64) %call19)
  br i1 %call20, label %if.then24, label %lor.lhs.false21

lor.lhs.false21:                                  ; preds = %if.end18
  %call22 = call noundef ptr @_ZN3zmq14encoder_base_tINS_12ws_encoder_tEE11in_progressEv(ptr noundef nonnull align 8 dereferenceable(72) %this1)
  %call23 = call noundef zeroext i1 @_ZNK3zmq5msg_t9is_cancelEv(ptr noundef nonnull align 8 dereferenceable(64) %call22)
  br i1 %call23, label %if.then24, label %if.end26

if.then24:                                        ; preds = %lor.lhs.false21, %if.end18
  %5 = load i32, ptr %mask_index, align 4
  %inc25 = add nsw i32 %5, 1
  store i32 %inc25, ptr %mask_index, align 4
  br label %if.end26

if.end26:                                         ; preds = %if.then24, %lor.lhs.false21
  store i64 0, ptr %i, align 8
  br label %for.cond

for.cond:                                         ; preds = %for.inc, %if.end26
  %6 = load i64, ptr %i, align 8
  %7 = load i64, ptr %size, align 8
  %cmp = icmp ult i64 %6, %7
  br i1 %cmp, label %for.body, label %for.end

for.body:                                         ; preds = %for.cond
  %8 = load ptr, ptr %src, align 8
  %9 = load i64, ptr %i, align 8
  %arrayidx = getelementptr inbounds i8, ptr %8, i64 %9
  %10 = load i8, ptr %arrayidx, align 1
  %conv27 = zext i8 %10 to i32
  %_mask = getelementptr inbounds %"class.zmq::ws_encoder_t", ptr %this1, i32 0, i32 3
  %11 = load i32, ptr %mask_index, align 4
  %rem = srem i32 %11, 4
  %idxprom = sext i32 %rem to i64
  %arrayidx28 = getelementptr inbounds [4 x i8], ptr %_mask, i64 0, i64 %idxprom
  %12 = load i8, ptr %arrayidx28, align 1
  %conv29 = zext i8 %12 to i32
  %xor = xor i32 %conv27, %conv29
  %conv30 = trunc i32 %xor to i8
  %13 = load ptr, ptr %dest, align 8
  %14 = load i64, ptr %i, align 8
  %arrayidx31 = getelementptr inbounds i8, ptr %13, i64 %14
  store i8 %conv30, ptr %arrayidx31, align 1
  br label %for.inc

for.inc:                                          ; preds = %for.body
  %15 = load i64, ptr %i, align 8
  %inc32 = add i64 %15, 1
  store i64 %inc32, ptr %i, align 8
  %16 = load i32, ptr %mask_index, align 4
  %inc33 = add nsw i32 %16, 1
  store i32 %inc33, ptr %mask_index, align 4
  br label %for.cond, !llvm.loop !4

for.end:                                          ; preds = %for.cond
  %17 = load ptr, ptr %dest, align 8
  %18 = load i64, ptr %size, align 8
  store { i64, i64 } { i64 ptrtoint (ptr @_ZN3zmq12ws_encoder_t13message_readyEv to i64), i64 0 }, ptr %coerce, align 8
  %19 = getelementptr inbounds { i64, i64 }, ptr %coerce, i32 0, i32 0
  %20 = load i64, ptr %19, align 8
  %21 = getelementptr inbounds { i64, i64 }, ptr %coerce, i32 0, i32 1
  %22 = load i64, ptr %21, align 8
  call void @_ZN3zmq14encoder_base_tINS_12ws_encoder_tEE9next_stepEPvmMS1_FvvEb(ptr noundef nonnull align 8 dereferenceable(72) %this1, ptr noundef %17, i64 noundef %18, i64 %20, i64 %22, i1 noundef zeroext true)
  br label %if.end39

if.else:                                          ; preds = %entry
  %call34 = call noundef ptr @_ZN3zmq14encoder_base_tINS_12ws_encoder_tEE11in_progressEv(ptr noundef nonnull align 8 dereferenceable(72) %this1)
  %call35 = call noundef ptr @_ZN3zmq5msg_t4dataEv(ptr noundef nonnull align 8 dereferenceable(64) %call34)
  %call36 = call noundef ptr @_ZN3zmq14encoder_base_tINS_12ws_encoder_tEE11in_progressEv(ptr noundef nonnull align 8 dereferenceable(72) %this1)
  %call37 = call noundef i64 @_ZNK3zmq5msg_t4sizeEv(ptr noundef nonnull align 8 dereferenceable(64) %call36)
  store { i64, i64 } { i64 ptrtoint (ptr @_ZN3zmq12ws_encoder_t13message_readyEv to i64), i64 0 }, ptr %coerce38, align 8
  %23 = getelementptr inbounds { i64, i64 }, ptr %coerce38, i32 0, i32 0
  %24 = load i64, ptr %23, align 8
  %25 = getelementptr inbounds { i64, i64 }, ptr %coerce38, i32 0, i32 1
  %26 = load i64, ptr %25, align 8
  call void @_ZN3zmq14encoder_base_tINS_12ws_encoder_tEE9next_stepEPvmMS1_FvvEb(ptr noundef nonnull align 8 dereferenceable(72) %this1, ptr noundef %call35, i64 noundef %call37, i64 %24, i64 %26, i1 noundef zeroext true)
  br label %if.end39

if.end39:                                         ; preds = %if.else, %for.end
  ret void
}