; Function Attrs: mustprogress uwtable
define void @_ZN3zmq12ws_encoder_t10size_readyEv(ptr noundef nonnull align 8 dereferenceable(168) %this) #0 align 2 {
entry:
  %_must_mask = getelementptr inbounds i8, ptr %this, i64 88
  %0 = load i8, ptr %_must_mask, align 8
  %1 = and i8 %0, 1
  %tobool.not = icmp eq i8 %1, 0
  %_in_progress.i19 = getelementptr inbounds i8, ptr %this, i64 64
  %2 = load ptr, ptr %_in_progress.i19, align 8
  br i1 %tobool.not, label %if.else, label %if.then

if.then:                                          ; preds = %entry
  %call2 = tail call noundef i64 @_ZNK3zmq5msg_t4sizeEv(ptr noundef nonnull align 8 dereferenceable(64) %2)
  %3 = load ptr, ptr %_in_progress.i19, align 8
  %call4 = tail call noundef ptr @_ZN3zmq5msg_t4dataEv(ptr noundef nonnull align 8 dereferenceable(64) %3)
  %4 = load ptr, ptr %_in_progress.i19, align 8
  %call6 = tail call noundef zeroext i8 @_ZNK3zmq5msg_t5flagsEv(ptr noundef nonnull align 8 dereferenceable(64) %4)
  %tobool7.not = icmp sgt i8 %call6, -1
  br i1 %tobool7.not, label %lor.lhs.false, label %if.then10

lor.lhs.false:                                    ; preds = %if.then
  %5 = load ptr, ptr %_in_progress.i19, align 8
  %call9 = tail call noundef zeroext i1 @_ZNK3zmq5msg_t7is_cmsgEv(ptr noundef nonnull align 8 dereferenceable(64) %5)
  br i1 %call9, label %if.then10, label %if.end

if.then10:                                        ; preds = %lor.lhs.false, %if.then
  %_masked_msg = getelementptr inbounds i8, ptr %this, i64 96
  %call11 = tail call noundef i32 @_ZN3zmq5msg_t5closeEv(ptr noundef nonnull align 8 dereferenceable(64) %_masked_msg)
  %call13 = tail call noundef i32 @_ZN3zmq5msg_t9init_sizeEm(ptr noundef nonnull align 8 dereferenceable(64) %_masked_msg, i64 noundef %call2)
  %call15 = tail call noundef ptr @_ZN3zmq5msg_t4dataEv(ptr noundef nonnull align 8 dereferenceable(64) %_masked_msg)
  br label %if.end

if.end:                                           ; preds = %if.then10, %lor.lhs.false
  %dest.0 = phi ptr [ %call15, %if.then10 ], [ %call4, %lor.lhs.false ]
  %_is_binary = getelementptr inbounds i8, ptr %this, i64 160
  %6 = load i8, ptr %_is_binary, align 8
  %7 = and i8 %6, 1
  %spec.select = zext nneg i8 %7 to i32
  %8 = load ptr, ptr %_in_progress.i19, align 8
  %flags.i = getelementptr inbounds i8, ptr %8, i64 43
  %9 = load i8, ptr %flags.i, align 1
  %10 = and i8 %9, 28
  switch i8 %10, label %if.end26 [
    i8 12, label %if.then24
    i8 16, label %if.then24
  ]

if.then24:                                        ; preds = %if.end, %if.end
  %inc25 = add nuw nsw i32 %spec.select, 1
  br label %if.end26

if.end26:                                         ; preds = %if.end, %if.then24
  %mask_index.1 = phi i32 [ %inc25, %if.then24 ], [ %spec.select, %if.end ]
  %cmp26.not = icmp eq i64 %call2, 0
  br i1 %cmp26.not, label %if.end39, label %for.body.lr.ph

for.body.lr.ph:                                   ; preds = %if.end26
  %_mask = getelementptr inbounds i8, ptr %this, i64 89
  br label %for.body

for.body:                                         ; preds = %for.body.lr.ph, %for.body
  %mask_index.228 = phi i32 [ %mask_index.1, %for.body.lr.ph ], [ %inc33, %for.body ]
  %i.027 = phi i64 [ 0, %for.body.lr.ph ], [ %inc32, %for.body ]
  %arrayidx = getelementptr inbounds i8, ptr %call4, i64 %i.027
  %11 = load i8, ptr %arrayidx, align 1
  %rem.urem = and i32 %mask_index.228, 3
  %idxprom = zext nneg i32 %rem.urem to i64
  %arrayidx28 = getelementptr inbounds [4 x i8], ptr %_mask, i64 0, i64 %idxprom
  %12 = load i8, ptr %arrayidx28, align 1
  %xor11 = xor i8 %12, %11
  %arrayidx31 = getelementptr inbounds i8, ptr %dest.0, i64 %i.027
  store i8 %xor11, ptr %arrayidx31, align 1
  %inc32 = add nuw i64 %i.027, 1
  %inc33 = add nuw nsw i32 %mask_index.228, 1
  %exitcond.not = icmp eq i64 %inc32, %call2
  br i1 %exitcond.not, label %if.end39, label %for.body, !llvm.loop !4

if.else:                                          ; preds = %entry
  %call35 = tail call noundef ptr @_ZN3zmq5msg_t4dataEv(ptr noundef nonnull align 8 dereferenceable(64) %2)
  %13 = load ptr, ptr %_in_progress.i19, align 8
  %call37 = tail call noundef i64 @_ZNK3zmq5msg_t4sizeEv(ptr noundef nonnull align 8 dereferenceable(64) %13)
  br label %if.end39

if.end39:                                         ; preds = %for.body, %if.end26, %if.else
  %call35.sink = phi ptr [ %call35, %if.else ], [ %dest.0, %if.end26 ], [ %dest.0, %for.body ]
  %call37.sink = phi i64 [ %call37, %if.else ], [ %call2, %if.end26 ], [ %call2, %for.body ]
  %_write_pos.i21 = getelementptr inbounds i8, ptr %this, i64 8
  store ptr %call35.sink, ptr %_write_pos.i21, align 8
  %_to_write.i22 = getelementptr inbounds i8, ptr %this, i64 16
  store i64 %call37.sink, ptr %_to_write.i22, align 8
  %_next.i23 = getelementptr inbounds i8, ptr %this, i64 24
  store i64 ptrtoint (ptr @_ZN3zmq12ws_encoder_t13message_readyEv to i64), ptr %_next.i23, align 8
  %_next.repack1.i24 = getelementptr inbounds i8, ptr %this, i64 32
  store i64 0, ptr %_next.repack1.i24, align 8
  %_new_msg_flag.i25 = getelementptr inbounds i8, ptr %this, i64 40
  store i8 1, ptr %_new_msg_flag.i25, align 8
  ret void
}